; Function Attrs: nofree norecurse nosync nounwind memory(argmem: readwrite) uwtable
define internal void @h264_v_loop_filter_luma_8_c(ptr noundef captures(none) %0, i64 noundef %1, i32 noundef %2, i32 noundef %3, ptr noundef readonly captures(none) %4) #1 {
  %6 = sub nsw i64 0, %1
  %7 = mul nsw i64 %1, -2
  %8 = mul nsw i64 %1, -3
  %9 = shl nsw i64 %1, 1
  br label %10

10:                                               ; preds = %5, %.loopexit
  %indvars.iv = phi i64 [ 0, %5 ], [ %indvars.iv.next, %.loopexit ]
  %.099.i7 = phi ptr [ %0, %5 ], [ %.1100.i, %.loopexit ]
  %11 = getelementptr inbounds nuw i8, ptr %4, i64 %indvars.iv
  %12 = load i8, ptr %11, align 1, !tbaa !42
  %13 = sext i8 %12 to i32
  %14 = icmp slt i8 %12, 0
  br i1 %14, label %17, label %.preheader

.preheader:                                       ; preds = %10
  %.not.i = icmp eq i8 %12, 0
  %15 = sub nsw i32 0, %13
  %16 = add nuw nsw i32 %13, 1
  br label %19

17:                                               ; preds = %10
  %18 = getelementptr inbounds nuw i8, ptr %.099.i7, i64 4
  br label %.loopexit

19:                                               ; preds = %.preheader, %94
  %.2.i5 = phi ptr [ %.099.i7, %.preheader ], [ %95, %94 ]
  %.0102.i4 = phi i32 [ 0, %.preheader ], [ %96, %94 ]
  %20 = getelementptr inbounds i8, ptr %.2.i5, i64 %6
  %21 = load i8, ptr %20, align 1, !tbaa !42
  %22 = zext i8 %21 to i32
  %23 = getelementptr inbounds i8, ptr %.2.i5, i64 %7
  %24 = load i8, ptr %23, align 1, !tbaa !42
  %25 = zext i8 %24 to i32
  %26 = getelementptr inbounds i8, ptr %.2.i5, i64 %8
  %27 = load i8, ptr %26, align 1, !tbaa !42
  %28 = zext i8 %27 to i32
  %29 = load i8, ptr %.2.i5, align 1, !tbaa !42
  %30 = zext i8 %29 to i32
  %31 = getelementptr inbounds i8, ptr %.2.i5, i64 %1
  %32 = load i8, ptr %31, align 1, !tbaa !42
  %33 = zext i8 %32 to i32
  %34 = getelementptr inbounds i8, ptr %.2.i5, i64 %9
  %35 = load i8, ptr %34, align 1, !tbaa !42
  %36 = zext i8 %35 to i32
  %37 = sub nsw i32 %22, %30
  %38 = tail call i32 @llvm.abs.i32(i32 %37, i1 true)
  %39 = icmp slt i32 %38, %2
  br i1 %39, label %40, label %94

40:                                               ; preds = %19
  %41 = sub nsw i32 %25, %22
  %42 = tail call i32 @llvm.abs.i32(i32 %41, i1 true)
  %43 = icmp slt i32 %42, %3
  br i1 %43, label %44, label %94

44:                                               ; preds = %40
  %45 = sub nsw i32 %33, %30
  %46 = tail call i32 @llvm.abs.i32(i32 %45, i1 true)
  %47 = icmp samesign ult i32 %46, %3
  br i1 %47, label %48, label %94

48:                                               ; preds = %44
  %49 = sub nsw i32 %28, %22
  %50 = tail call i32 @llvm.abs.i32(i32 %49, i1 true)
  %51 = icmp samesign uge i32 %50, %3
  %brmerge = or i1 %51, %.not.i
  %.mux = select i1 %51, i32 %13, i32 %16
  br i1 %brmerge, label %62, label %52

52:                                               ; preds = %48
  %53 = add nuw nsw i32 %22, 1
  %54 = add nuw nsw i32 %53, %30
  %55 = lshr i32 %54, 1
  %56 = add nuw nsw i32 %55, %28
  %57 = lshr i32 %56, 1
  %58 = sub nsw i32 %57, %25
  %59 = icmp slt i32 %58, %15
  %..i118.i = tail call i32 @llvm.smin.i32(i32 %58, i32 %13)
  %.0.i119.i = select i1 %59, i32 %15, i32 %..i118.i
  %60 = trunc i32 %.0.i119.i to i8
  %61 = add i8 %24, %60
  store i8 %61, ptr %23, align 1, !tbaa !42
  br label %62

62:                                               ; preds = %48, %52
  %.0.i = phi i32 [ %.mux, %48 ], [ %16, %52 ]
  %63 = sub nsw i32 %36, %30
  %64 = tail call i32 @llvm.abs.i32(i32 %63, i1 true)
  %65 = icmp samesign ult i32 %64, %3
  br i1 %65, label %66, label %79

66:                                               ; preds = %62
  br i1 %.not.i, label %77, label %67

67:                                               ; preds = %66
  %68 = add nuw nsw i32 %22, 1
  %69 = add nuw nsw i32 %68, %30
  %70 = lshr i32 %69, 1
  %71 = add nuw nsw i32 %70, %36
  %72 = lshr i32 %71, 1
  %73 = sub nsw i32 %72, %33
  %74 = icmp slt i32 %73, %15
  %..i116.i = tail call i32 @llvm.smin.i32(i32 %73, i32 %13)
  %.0.i117.i = select i1 %74, i32 %15, i32 %..i116.i
  %75 = trunc i32 %.0.i117.i to i8
  %76 = add i8 %32, %75
  store i8 %76, ptr %31, align 1, !tbaa !42
  br label %77

77:                                               ; preds = %67, %66
  %78 = add nuw nsw i32 %.0.i, 1
  br label %79

79:                                               ; preds = %77, %62
  %.1.i = phi i32 [ %78, %77 ], [ %.0.i, %62 ]
  %80 = sub nsw i32 %30, %22
  %81 = shl nsw i32 %80, 2
  %82 = add nuw nsw i32 %25, 4
  %83 = sub nsw i32 %82, %33
  %84 = add nsw i32 %83, %81
  %85 = ashr i32 %84, 3
  %86 = sub nsw i32 0, %.1.i
  %87 = icmp slt i32 %85, %86
  %..i.i = tail call i32 @llvm.smin.i32(i32 %85, i32 %.1.i)
  %.0.i.i = select i1 %87, i32 %86, i32 %..i.i
  %88 = add nsw i32 %.0.i.i, %22
  %.not.i121.i = icmp ult i32 %88, 256
  %isnotneg.i122.i = icmp sgt i32 %88, -1
  %89 = sext i1 %isnotneg.i122.i to i8
  %90 = trunc nuw i32 %88 to i8
  %.0.i123.i = select i1 %.not.i121.i, i8 %90, i8 %89
  store i8 %.0.i123.i, ptr %20, align 1, !tbaa !42
  %91 = sub nsw i32 %30, %.0.i.i
  %.not.i.i = icmp ult i32 %91, 256
  %isnotneg.i.i = icmp sgt i32 %91, -1
  %92 = sext i1 %isnotneg.i.i to i8
  %93 = trunc nuw i32 %91 to i8
  %.0.i120.i = select i1 %.not.i.i, i8 %93, i8 %92
  store i8 %.0.i120.i, ptr %.2.i5, align 1, !tbaa !42
  br label %94

94:                                               ; preds = %79, %44, %40, %19
  %95 = getelementptr inbounds nuw i8, ptr %.2.i5, i64 1
  %96 = add nuw nsw i32 %.0102.i4, 1
  %exitcond.not = icmp eq i32 %96, 4
  br i1 %exitcond.not, label %.loopexit, label %19, !llvm.loop !109

.loopexit:                                        ; preds = %94, %17
  %.1100.i = phi ptr [ %18, %17 ], [ %95, %94 ]
  %indvars.iv.next = add nuw nsw i64 %indvars.iv, 1
  %exitcond9.not = icmp eq i64 %indvars.iv.next, 4
  br i1 %exitcond9.not, label %h264_loop_filter_luma_8_c.exit, label %10, !llvm.loop !110

h264_loop_filter_luma_8_c.exit:                   ; preds = %.loopexit
  ret void
}